; Function Attrs: nounwind uwtable
define range(i32 0, 2) i32 @ossl_quic_lcidm_cull(ptr noundef %0, ptr noundef %1) local_unnamed_addr #0 {
  %3 = alloca %struct.quic_lcidm_conn_st, align 8
  call void @llvm.lifetime.start.p0(i64 48, ptr nonnull %3) #11
  %4 = getelementptr inbounds nuw i8, ptr %3, i64 16
  store ptr %1, ptr %4, align 8, !tbaa !24
  %5 = getelementptr inbounds nuw i8, ptr %0, i64 16
  %6 = load ptr, ptr %5, align 8, !tbaa !12
  %7 = call ptr @OPENSSL_LH_retrieve(ptr noundef %6, ptr noundef nonnull %3) #11
  %8 = icmp eq ptr %7, null
  br i1 %8, label %16, label %9

9:                                                ; preds = %2
  %10 = getelementptr inbounds nuw i8, ptr %7, i64 8
  %11 = load ptr, ptr %10, align 8, !tbaa !27
  call void @OPENSSL_LH_set_down_load(ptr noundef %11, i64 noundef 0) #11
  %12 = load ptr, ptr %10, align 8, !tbaa !27
  call void @OPENSSL_LH_doall_arg(ptr noundef %12, ptr noundef nonnull @lcidm_delete_conn_lcid_, ptr noundef nonnull %0) #11
  %13 = load ptr, ptr %5, align 8, !tbaa !12
  %14 = call ptr @OPENSSL_LH_delete(ptr noundef %13, ptr noundef nonnull %7) #11
  %15 = load ptr, ptr %10, align 8, !tbaa !27
  call void @OPENSSL_LH_free(ptr noundef %15) #11
  call void @CRYPTO_free(ptr noundef nonnull %7, ptr noundef nonnull @.str, i32 noundef 238) #11
  br label %16

16:                                               ; preds = %2, %9
  %.0 = phi i32 [ 1, %9 ], [ 0, %2 ]
  call void @llvm.lifetime.end.p0(i64 48, ptr nonnull %3) #11
  ret i32 %.0
}